target datalayout = "e-m:e-p270:32:32-p271:32:32-p272:64:64-i64:64-i128:128-f80:128-n8:16:32:64-S128"
target triple = "x86_64-pc-linux-gnu"

%struct.lv_sdl_keyboard_t = type { [32 x i8], i8 }
%struct.SDL_KeyboardEvent = type { i32, i32, i32, i8, i8, i8, i8, %struct.SDL_Keysym }
%struct.SDL_Keysym = type { i32, i32, i16, i32 }
%struct.SDL_TextInputEvent = type { i32, i32, i32, [32 x i8] }

; Function Attrs: nounwind uwtable
define internal i32 @keycode_to_ctrl_key(i32 noundef %0) #0 {
  %2 = alloca i32, align 4
  %3 = alloca i32, align 4
  store i32 %0, ptr %3, align 4, !tbaa !21
  %4 = load i32, ptr %3, align 4, !tbaa !21
  switch i32 %4, label %17 [
    i32 1073741903, label %5
    i32 1073741911, label %5
    i32 1073741904, label %6
    i32 1073741910, label %6
    i32 1073741906, label %7
    i32 1073741905, label %8
    i32 27, label %9
    i32 8, label %10
    i32 127, label %11
    i32 1073741912, label %12
    i32 13, label %12
    i32 9, label %13
    i32 1073741902, label %13
    i32 1073741899, label %14
    i32 1073741898, label %15
    i32 1073741901, label %16
  ]

5:                                                ; preds = %1, %1
  store i32 19, ptr %2, align 4
  br label %18

6:                                                ; preds = %1, %1
  store i32 20, ptr %2, align 4
  br label %18

7:                                                ; preds = %1
  store i32 17, ptr %2, align 4
  br label %18

8:                                                ; preds = %1
  store i32 18, ptr %2, align 4
  br label %18

9:                                                ; preds = %1
  store i32 27, ptr %2, align 4
  br label %18

10:                                               ; preds = %1
  store i32 8, ptr %2, align 4
  br label %18

11:                                               ; preds = %1
  store i32 127, ptr %2, align 4
  br label %18

12:                                               ; preds = %1, %1
  store i32 10, ptr %2, align 4
  br label %18

13:                                               ; preds = %1, %1
  store i32 9, ptr %2, align 4
  br label %18

14:                                               ; preds = %1
  store i32 11, ptr %2, align 4
  br label %18

15:                                               ; preds = %1
  store i32 2, ptr %2, align 4
  br label %18

16:                                               ; preds = %1
  store i32 3, ptr %2, align 4
  br label %18

17:                                               ; preds = %1
  store i32 0, ptr %2, align 4
  br label %18

18:                                               ; preds = %17, %16, %15, %14, %13, %12, %11, %10, %9, %8, %7, %6, %5
  %19 = load i32, ptr %2, align 4
  ret i32 %19
}

; Function Attrs: nounwind uwtable
define void @lv_sdl_keyboard_handler(ptr noundef %0) #0 {
  %2 = alloca ptr, align 8
  %3 = alloca i32, align 4
  %4 = alloca i32, align 4
  %5 = alloca ptr, align 8
  %6 = alloca ptr, align 8
  %7 = alloca ptr, align 8
  %8 = alloca i32, align 4
  %9 = alloca i64, align 8
  %10 = alloca i64, align 8
  %11 = alloca i64, align 8
  store ptr %0, ptr %2, align 8, !tbaa !3
  call void @llvm.lifetime.start.p0(i64 4, ptr %3) #4
  store i32 -1, ptr %3, align 4, !tbaa !21
  %12 = load ptr, ptr %2, align 8, !tbaa !3
  %13 = load i32, ptr %12, align 8, !tbaa !19
  switch i32 %13, label %22 [
    i32 768, label %14
    i32 771, label %18
  ]

14:                                               ; preds = %1
  %15 = load ptr, ptr %2, align 8, !tbaa !3
  %16 = getelementptr inbounds nuw %struct.SDL_KeyboardEvent, ptr %15, i32 0, i32 2
  %17 = load i32, ptr %16, align 8, !tbaa !19
  store i32 %17, ptr %3, align 4, !tbaa !21
  br label %23

18:                                               ; preds = %1
  %19 = load ptr, ptr %2, align 8, !tbaa !3
  %20 = getelementptr inbounds nuw %struct.SDL_TextInputEvent, ptr %19, i32 0, i32 2
  %21 = load i32, ptr %20, align 8, !tbaa !19
  store i32 %21, ptr %3, align 4, !tbaa !21
  br label %23

22:                                               ; preds = %1
  store i32 1, ptr %4, align 4
  br label %125

23:                                               ; preds = %18, %14
  call void @llvm.lifetime.start.p0(i64 8, ptr %5) #4
  %24 = load i32, ptr %3, align 4, !tbaa !21
  %25 = call ptr @lv_sdl_get_disp_from_win_id(i32 noundef %24)
  store ptr %25, ptr %5, align 8, !tbaa !3
  call void @llvm.lifetime.start.p0(i64 8, ptr %6) #4
  %26 = call ptr @lv_indev_get_next(ptr noundef null)
  store ptr %26, ptr %6, align 8, !tbaa !3
  br label %27

27:                                               ; preds = %44, %23
  %28 = load ptr, ptr %6, align 8, !tbaa !3
  %29 = icmp ne ptr %28, null
  br i1 %29, label %30, label %47

30:                                               ; preds = %27
  %31 = load ptr, ptr %6, align 8, !tbaa !3
  %32 = call i32 @lv_indev_get_type(ptr noundef %31)
  %33 = icmp eq i32 %32, 2
  br i1 %33, label %34, label %44

34:                                               ; preds = %30
  %35 = load ptr, ptr %5, align 8, !tbaa !3
  %36 = icmp eq ptr %35, null
  br i1 %36, label %42, label %37

37:                                               ; preds = %34
  %38 = load ptr, ptr %6, align 8, !tbaa !3
  %39 = call ptr @lv_indev_get_display(ptr noundef %38)
  %40 = load ptr, ptr %5, align 8, !tbaa !3
  %41 = icmp eq ptr %39, %40
  br i1 %41, label %42, label %43

42:                                               ; preds = %37, %34
  br label %47

43:                                               ; preds = %37
  br label %44

44:                                               ; preds = %43, %30
  %45 = load ptr, ptr %6, align 8, !tbaa !3
  %46 = call ptr @lv_indev_get_next(ptr noundef %45)
  store ptr %46, ptr %6, align 8, !tbaa !3
  br label %27, !llvm.loop !22

47:                                               ; preds = %42, %27
  %48 = load ptr, ptr %6, align 8, !tbaa !3
  %49 = icmp eq ptr %48, null
  br i1 %49, label %50, label %51

50:                                               ; preds = %47
  store i32 1, ptr %4, align 4
  br label %124

51:                                               ; preds = %47
  call void @llvm.lifetime.start.p0(i64 8, ptr %7) #4
  %52 = load ptr, ptr %6, align 8, !tbaa !3
  %53 = call ptr @lv_indev_get_driver_data(ptr noundef %52)
  store ptr %53, ptr %7, align 8, !tbaa !3
  %54 = load ptr, ptr %2, align 8, !tbaa !3
  %55 = load i32, ptr %54, align 8, !tbaa !19
  switch i32 %55, label %108 [
    i32 768, label %56
    i32 771, label %87
  ]

56:                                               ; preds = %51
  call void @llvm.lifetime.start.p0(i64 4, ptr %8) #4
  %57 = load ptr, ptr %2, align 8, !tbaa !3
  %58 = getelementptr inbounds nuw %struct.SDL_KeyboardEvent, ptr %57, i32 0, i32 7
  %59 = getelementptr inbounds nuw %struct.SDL_Keysym, ptr %58, i32 0, i32 1
  %60 = load i32, ptr %59, align 4, !tbaa !19
  %61 = call i32 @keycode_to_ctrl_key(i32 noundef %60)
  store i32 %61, ptr %8, align 4, !tbaa !21
  %62 = load i32, ptr %8, align 4, !tbaa !21
  %63 = icmp eq i32 %62, 0
  br i1 %63, label %64, label %65

64:                                               ; preds = %56
  store i32 1, ptr %4, align 4
  br label %85

65:                                               ; preds = %56
  call void @llvm.lifetime.start.p0(i64 8, ptr %9) #4
  %66 = load ptr, ptr %7, align 8, !tbaa !3
  %67 = getelementptr inbounds nuw %struct.lv_sdl_keyboard_t, ptr %66, i32 0, i32 0
  %68 = getelementptr inbounds [32 x i8], ptr %67, i64 0, i64 0
  %69 = call i64 @lv_strlen(ptr noundef %68)
  store i64 %69, ptr %9, align 8, !tbaa !7
  %70 = load i64, ptr %9, align 8, !tbaa !7
  %71 = icmp ult i64 %70, 31
  br i1 %71, label %72, label %84

72:                                               ; preds = %65
  %73 = load i32, ptr %8, align 4, !tbaa !21
  %74 = trunc i32 %73 to i8
  %75 = load ptr, ptr %7, align 8, !tbaa !3
  %76 = getelementptr inbounds nuw %struct.lv_sdl_keyboard_t, ptr %75, i32 0, i32 0
  %77 = load i64, ptr %9, align 8, !tbaa !7
  %78 = getelementptr inbounds nuw [32 x i8], ptr %76, i64 0, i64 %77
  store i8 %74, ptr %78, align 1, !tbaa !19
  %79 = load ptr, ptr %7, align 8, !tbaa !3
  %80 = getelementptr inbounds nuw %struct.lv_sdl_keyboard_t, ptr %79, i32 0, i32 0
  %81 = load i64, ptr %9, align 8, !tbaa !7
  %82 = add i64 %81, 1
  %83 = getelementptr inbounds nuw [32 x i8], ptr %80, i64 0, i64 %82
  store i8 0, ptr %83, align 1, !tbaa !19
  br label %84

84:                                               ; preds = %72, %65
  store i32 5, ptr %4, align 4
  call void @llvm.lifetime.end.p0(i64 8, ptr %9) #4
  br label %85

85:                                               ; preds = %84, %64
  call void @llvm.lifetime.end.p0(i64 4, ptr %8) #4
  %86 = load i32, ptr %4, align 4
  switch i32 %86, label %123 [
    i32 5, label %109
  ]

87:                                               ; preds = %51
  call void @llvm.lifetime.start.p0(i64 8, ptr %10) #4
  %88 = load ptr, ptr %7, align 8, !tbaa !3
  %89 = getelementptr inbounds nuw %struct.lv_sdl_keyboard_t, ptr %88, i32 0, i32 0
  %90 = getelementptr inbounds [32 x i8], ptr %89, i64 0, i64 0
  %91 = call i64 @lv_strlen(ptr noundef %90)
  %92 = load ptr, ptr %2, align 8, !tbaa !3
  %93 = getelementptr inbounds nuw %struct.SDL_TextInputEvent, ptr %92, i32 0, i32 3
  %94 = getelementptr inbounds [32 x i8], ptr %93, i64 0, i64 0
  %95 = call i64 @lv_strlen(ptr noundef %94)
  %96 = add i64 %91, %95
  store i64 %96, ptr %10, align 8, !tbaa !7
  %97 = load i64, ptr %10, align 8, !tbaa !7
  %98 = icmp ult i64 %97, 31
  br i1 %98, label %99, label %107

99:                                               ; preds = %87
  %100 = load ptr, ptr %7, align 8, !tbaa !3
  %101 = getelementptr inbounds nuw %struct.lv_sdl_keyboard_t, ptr %100, i32 0, i32 0
  %102 = getelementptr inbounds [32 x i8], ptr %101, i64 0, i64 0
  %103 = load ptr, ptr %2, align 8, !tbaa !3
  %104 = getelementptr inbounds nuw %struct.SDL_TextInputEvent, ptr %103, i32 0, i32 3
  %105 = getelementptr inbounds [32 x i8], ptr %104, i64 0, i64 0
  %106 = call ptr @strcat(ptr noundef %102, ptr noundef %105) #4
  br label %107

107:                                              ; preds = %99, %87
  call void @llvm.lifetime.end.p0(i64 8, ptr %10) #4
  br label %109

108:                                              ; preds = %51
  br label %109

109:                                              ; preds = %108, %107, %85
  call void @llvm.lifetime.start.p0(i64 8, ptr %11) #4
  %110 = load ptr, ptr %7, align 8, !tbaa !3
  %111 = getelementptr inbounds nuw %struct.lv_sdl_keyboard_t, ptr %110, i32 0, i32 0
  %112 = getelementptr inbounds [32 x i8], ptr %111, i64 0, i64 0
  %113 = call i64 @lv_strlen(ptr noundef %112)
  store i64 %113, ptr %11, align 8, !tbaa !7
  br label %114

114:                                              ; preds = %117, %109
  %115 = load i64, ptr %11, align 8, !tbaa !7
  %116 = icmp ne i64 %115, 0
  br i1 %116, label %117, label %122

117:                                              ; preds = %114
  %118 = load ptr, ptr %6, align 8, !tbaa !3
  call void @lv_indev_read(ptr noundef %118)
  %119 = load ptr, ptr %6, align 8, !tbaa !3
  call void @lv_indev_read(ptr noundef %119)
  %120 = load i64, ptr %11, align 8, !tbaa !7
  %121 = add i64 %120, -1
  store i64 %121, ptr %11, align 8, !tbaa !7
  br label %114, !llvm.loop !24

122:                                              ; preds = %114
  call void @llvm.lifetime.end.p0(i64 8, ptr %11) #4
  store i32 0, ptr %4, align 4
  br label %123

123:                                              ; preds = %122, %85
  call void @llvm.lifetime.end.p0(i64 8, ptr %7) #4
  br label %124

124:                                              ; preds = %123, %50
  call void @llvm.lifetime.end.p0(i64 8, ptr %6) #4
  call void @llvm.lifetime.end.p0(i64 8, ptr %5) #4
  br label %125

125:                                              ; preds = %124, %22
  call void @llvm.lifetime.end.p0(i64 4, ptr %3) #4
  %126 = load i32, ptr %4, align 4
  switch i32 %126, label %128 [
    i32 0, label %127
    i32 1, label %127
  ]

127:                                              ; preds = %125, %125
  ret void

128:                                              ; preds = %125
  unreachable
}