; Function Attrs: nounwind uwtable
define void @lv_sdl_keyboard_handler(ptr noundef %0) local_unnamed_addr #0 {
  %2 = load i32, ptr %0, align 8, !tbaa !15
  switch i32 %2, label %.critedge [
    i32 768, label %3
    i32 771, label %3
  ]

3:                                                ; preds = %1, %1
  %.032.in = getelementptr inbounds nuw i8, ptr %0, i64 8
  %.032 = load i32, ptr %.032.in, align 8, !tbaa !15
  %4 = tail call ptr @lv_sdl_get_disp_from_win_id(i32 noundef %.032) #3
  %.fr51 = freeze ptr %4
  %5 = tail call ptr @lv_indev_get_next(ptr noundef null) #3
  %cond45 = icmp eq ptr %5, null
  br i1 %cond45, label %.critedge, label %.lr.ph

.lr.ph:                                           ; preds = %3
  %6 = icmp eq ptr %.fr51, null
  br i1 %6, label %.lr.ph.split.us, label %.lr.ph.split

.lr.ph.split.us:                                  ; preds = %.lr.ph, %9
  %.03446.us = phi ptr [ %10, %9 ], [ %5, %.lr.ph ]
  %7 = tail call i32 @lv_indev_get_type(ptr noundef nonnull %.03446.us) #3
  %8 = icmp eq i32 %7, 2
  br i1 %8, label %.split.us, label %9

9:                                                ; preds = %.lr.ph.split.us
  %10 = tail call ptr @lv_indev_get_next(ptr noundef nonnull %.03446.us) #3
  %cond.us = icmp eq ptr %10, null
  br i1 %cond.us, label %.critedge, label %.lr.ph.split.us, !llvm.loop !17

.lr.ph.split:                                     ; preds = %.lr.ph, %16
  %.03446 = phi ptr [ %17, %16 ], [ %5, %.lr.ph ]
  %11 = tail call i32 @lv_indev_get_type(ptr noundef nonnull %.03446) #3
  %12 = icmp eq i32 %11, 2
  br i1 %12, label %13, label %16

13:                                               ; preds = %.lr.ph.split
  %14 = tail call ptr @lv_indev_get_display(ptr noundef nonnull %.03446) #3
  %15 = icmp eq ptr %14, %.fr51
  br i1 %15, label %.split.us, label %16

16:                                               ; preds = %13, %.lr.ph.split
  %17 = tail call ptr @lv_indev_get_next(ptr noundef nonnull %.03446) #3
  %cond = icmp eq ptr %17, null
  br i1 %cond, label %.critedge, label %.lr.ph.split, !llvm.loop !17

.split.us:                                        ; preds = %13, %.lr.ph.split.us
  %.us-phi = phi ptr [ %.03446.us, %.lr.ph.split.us ], [ %.03446, %13 ]
  %18 = tail call ptr @lv_indev_get_driver_data(ptr noundef nonnull %.us-phi) #3
  %19 = load i32, ptr %0, align 8, !tbaa !15
  switch i32 %19, label %49 [
    i32 768, label %20
    i32 771, label %41
  ]

20:                                               ; preds = %.split.us
  %21 = getelementptr inbounds nuw i8, ptr %0, i64 20
  %22 = load i32, ptr %21, align 4, !tbaa !15
  switch i32 %22, label %.critedge [
    i32 1073741903, label %34
    i32 1073741911, label %34
    i32 1073741904, label %23
    i32 1073741910, label %23
    i32 1073741906, label %24
    i32 1073741905, label %25
    i32 27, label %26
    i32 8, label %27
    i32 127, label %28
    i32 1073741912, label %29
    i32 13, label %29
    i32 9, label %30
    i32 1073741902, label %30
    i32 1073741899, label %31
    i32 1073741898, label %32
    i32 1073741901, label %33
  ]

23:                                               ; preds = %20, %20
  br label %34

24:                                               ; preds = %20
  br label %34

25:                                               ; preds = %20
  br label %34

26:                                               ; preds = %20
  br label %34

27:                                               ; preds = %20
  br label %34

28:                                               ; preds = %20
  br label %34

29:                                               ; preds = %20, %20
  br label %34

30:                                               ; preds = %20, %20
  br label %34

31:                                               ; preds = %20
  br label %34

32:                                               ; preds = %20
  br label %34

33:                                               ; preds = %20
  br label %34

34:                                               ; preds = %33, %32, %31, %30, %29, %28, %27, %26, %25, %24, %23, %20, %20
  %.0.i.ph = phi i8 [ 19, %20 ], [ 19, %20 ], [ 20, %23 ], [ 17, %24 ], [ 18, %25 ], [ 27, %26 ], [ 8, %27 ], [ 127, %28 ], [ 10, %29 ], [ 9, %30 ], [ 11, %31 ], [ 2, %32 ], [ 3, %33 ]
  %35 = tail call i64 @lv_strlen(ptr noundef %18) #3
  %36 = icmp ult i64 %35, 31
  br i1 %36, label %37, label %49

37:                                               ; preds = %34
  %38 = getelementptr inbounds nuw [32 x i8], ptr %18, i64 0, i64 %35
  store i8 %.0.i.ph, ptr %38, align 1, !tbaa !15
  %39 = add nuw nsw i64 %35, 1
  %40 = getelementptr inbounds nuw [32 x i8], ptr %18, i64 0, i64 %39
  store i8 0, ptr %40, align 1, !tbaa !15
  br label %49

41:                                               ; preds = %.split.us
  %42 = tail call i64 @lv_strlen(ptr noundef %18) #3
  %43 = getelementptr inbounds nuw i8, ptr %0, i64 12
  %44 = tail call i64 @lv_strlen(ptr noundef nonnull %43) #3
  %45 = add i64 %44, %42
  %46 = icmp ult i64 %45, 31
  br i1 %46, label %47, label %49

47:                                               ; preds = %41
  %48 = tail call ptr @strcat(ptr noundef nonnull dereferenceable(1) %18, ptr noundef nonnull dereferenceable(1) %43) #3
  br label %49

49:                                               ; preds = %37, %34, %41, %47, %.split.us
  %50 = tail call i64 @lv_strlen(ptr noundef %18) #3
  %.not3948 = icmp eq i64 %50, 0
  br i1 %.not3948, label %.critedge, label %.lr.ph50

.lr.ph50:                                         ; preds = %49, %.lr.ph50
  %.049 = phi i64 [ %51, %.lr.ph50 ], [ %50, %49 ]
  tail call void @lv_indev_read(ptr noundef nonnull %.us-phi) #3
  tail call void @lv_indev_read(ptr noundef nonnull %.us-phi) #3
  %51 = add i64 %.049, -1
  %.not39 = icmp eq i64 %51, 0
  br i1 %.not39, label %.critedge, label %.lr.ph50, !llvm.loop !19

.critedge:                                        ; preds = %16, %9, %.lr.ph50, %3, %49, %20, %1
  ret void
}